target datalayout = "e-m:e-p270:32:32-p271:32:32-p272:64:64-i64:64-i128:128-f80:128-n8:16:32:64-S128"
target triple = "x86_64-pc-linux-gnu"

%"class.icu_77::UObject" = type { ptr }
%"class.icu_77::UnicodeString" = type { %"class.icu_77::Replaceable", %"union.icu_77::UnicodeString::StackBufferOrFields" }
%"class.icu_77::Replaceable" = type { %"class.icu_77::UObject" }
%"union.icu_77::UnicodeString::StackBufferOrFields" = type { %struct.anon.0, [32 x i8] }
%struct.anon.0 = type { i16, i32, i32, ptr }
%struct.anon = type { i16, [27 x i16] }

@_ZTVN6icu_777UObjectE = available_externally unnamed_addr constant { [5 x ptr] } { [5 x ptr] [ptr null, ptr @_ZTIN6icu_777UObjectE, ptr @_ZN6icu_777UObjectD1Ev, ptr @_ZN6icu_777UObjectD0Ev, ptr @_ZNK6icu_777UObject17getDynamicClassIDEv] }, align 8

; Function Attrs: inlinehint mustprogress nounwind uwtable
define linkonce_odr void @_ZN6icu_777UObjectC2Ev(ptr noundef nonnull align 8 dereferenceable(8) %0) unnamed_addr #1 comdat align 2 {
  %2 = alloca ptr, align 8
  store ptr %0, ptr %2, align 8, !tbaa !12
  %3 = load ptr, ptr %2, align 8
  store ptr getelementptr inbounds inrange(-16, 24) ({ [5 x ptr] }, ptr @_ZTVN6icu_777UObjectE, i32 0, i32 0, i32 2), ptr %3, align 8, !tbaa !10
  ret void
}

; Function Attrs: inlinehint mustprogress nounwind uwtable
define linkonce_odr void @_ZN6icu_7711ReplaceableC2Ev(ptr noundef nonnull align 8 dereferenceable(8) %0) unnamed_addr #1 comdat align 2 {
  %2 = alloca ptr, align 8
  store ptr %0, ptr %2, align 8, !tbaa !118
  %3 = load ptr, ptr %2, align 8
  call void @_ZN6icu_777UObjectC2Ev(ptr noundef nonnull align 8 dereferenceable(8) %3) #10
  store ptr getelementptr inbounds inrange(-16, 88) ({ [13 x ptr] }, ptr @_ZTVN6icu_7711ReplaceableE, i32 0, i32 0, i32 2), ptr %3, align 8, !tbaa !10
  ret void
}

; Function Attrs: inlinehint mustprogress uwtable
define linkonce_odr void @_ZN6icu_7713UnicodeStringC2Ev(ptr noundef nonnull align 8 dereferenceable(64) %0) unnamed_addr #5 comdat align 2 {
  %2 = alloca ptr, align 8
  store ptr %0, ptr %2, align 8, !tbaa !8
  %3 = load ptr, ptr %2, align 8
  call void @_ZN6icu_7711ReplaceableC2Ev(ptr noundef nonnull align 8 dereferenceable(8) %3)
  store ptr getelementptr inbounds inrange(-16, 88) ({ [13 x ptr] }, ptr @_ZTVN6icu_7713UnicodeStringE, i32 0, i32 0, i32 2), ptr %3, align 8, !tbaa !10
  %4 = getelementptr inbounds nuw %"class.icu_77::UnicodeString", ptr %3, i32 0, i32 1
  %5 = getelementptr inbounds nuw %struct.anon, ptr %4, i32 0, i32 0
  store i16 2, ptr %5, align 8, !tbaa !22
  ret void
}

; Function Attrs: mustprogress uwtable
define noundef ptr @_ZN6icu_7710ICUService16registerInstanceEPNS_7UObjectERKNS_13UnicodeStringEaR10UErrorCode(ptr noundef nonnull align 8 dereferenceable(120) %0, ptr noundef %1, ptr noundef nonnull align 8 dereferenceable(64) %2, i8 noundef signext %3, ptr noundef nonnull align 4 dereferenceable(4) %4) unnamed_addr #0 align 2 personality ptr @__gxx_personality_v0 {
  %6 = alloca ptr, align 8
  %7 = alloca ptr, align 8
  %8 = alloca ptr, align 8
  %9 = alloca ptr, align 8
  %10 = alloca i8, align 1
  %11 = alloca ptr, align 8
  %12 = alloca ptr, align 8
  %13 = alloca %"class.icu_77::UnicodeString", align 8
  %14 = alloca ptr, align 8
  %15 = alloca i32, align 4
  %16 = alloca ptr, align 8
  %17 = alloca i32, align 4
  store ptr %0, ptr %7, align 8, !tbaa !30
  store ptr %1, ptr %8, align 8, !tbaa !12
  store ptr %2, ptr %9, align 8, !tbaa !8
  store i8 %3, ptr %10, align 1, !tbaa !22
  store ptr %4, ptr %11, align 8, !tbaa !32
  %18 = load ptr, ptr %7, align 8
  call void @llvm.lifetime.start.p0(i64 8, ptr %12) #10
  %19 = load ptr, ptr %9, align 8, !tbaa !8
  %20 = load ptr, ptr %11, align 8, !tbaa !32
  %21 = load ptr, ptr %18, align 8, !tbaa !10
  %22 = getelementptr inbounds ptr, ptr %21, i64 13
  %23 = load ptr, ptr %22, align 8
  %24 = call noundef ptr %23(ptr noundef nonnull align 8 dereferenceable(120) %18, ptr noundef %19, ptr noundef nonnull align 4 dereferenceable(4) %20)
  store ptr %24, ptr %12, align 8, !tbaa !3
  %25 = load ptr, ptr %12, align 8, !tbaa !3
  %26 = icmp ne ptr %25, null
  br i1 %26, label %27, label %72

27:                                               ; preds = %5
  call void @llvm.lifetime.start.p0(i64 64, ptr %13) #10
  call void @_ZN6icu_7713UnicodeStringC2Ev(ptr noundef nonnull align 8 dereferenceable(64) %13)
  %28 = load ptr, ptr %12, align 8, !tbaa !3
  %29 = load ptr, ptr %28, align 8, !tbaa !10
  %30 = getelementptr inbounds ptr, ptr %29, i64 4
  %31 = load ptr, ptr %30, align 8
  %32 = invoke noundef nonnull align 8 dereferenceable(64) ptr %31(ptr noundef nonnull align 8 dereferenceable(72) %28, ptr noundef nonnull align 8 dereferenceable(64) %13)
          to label %33 unwind label %59

33:                                               ; preds = %27
  %34 = load ptr, ptr %12, align 8, !tbaa !3
  %35 = icmp eq ptr %34, null
  br i1 %35, label %40, label %36

36:                                               ; preds = %33
  %37 = load ptr, ptr %34, align 8, !tbaa !10
  %38 = getelementptr inbounds ptr, ptr %37, i64 1
  %39 = load ptr, ptr %38, align 8
  call void %39(ptr noundef nonnull align 8 dereferenceable(72) %34) #10
  br label %40

40:                                               ; preds = %36, %33
  call void @llvm.lifetime.start.p0(i64 8, ptr %16) #10
  %41 = load ptr, ptr %8, align 8, !tbaa !12
  %42 = load i8, ptr %10, align 1, !tbaa !22
  %43 = load ptr, ptr %11, align 8, !tbaa !32
  %44 = load ptr, ptr %18, align 8, !tbaa !10
  %45 = getelementptr inbounds ptr, ptr %44, i64 15
  %46 = load ptr, ptr %45, align 8
  %47 = invoke noundef ptr %46(ptr noundef nonnull align 8 dereferenceable(120) %18, ptr noundef %41, ptr noundef nonnull align 8 dereferenceable(64) %13, i8 noundef signext %42, ptr noundef nonnull align 4 dereferenceable(4) %43)
          to label %48 unwind label %63

48:                                               ; preds = %40
  store ptr %47, ptr %16, align 8, !tbaa !18
  %49 = load ptr, ptr %16, align 8, !tbaa !18
  %50 = icmp ne ptr %49, null
  br i1 %50, label %51, label %67

51:                                               ; preds = %48
  %52 = load ptr, ptr %16, align 8, !tbaa !18
  %53 = load ptr, ptr %11, align 8, !tbaa !32
  %54 = load ptr, ptr %18, align 8, !tbaa !10
  %55 = getelementptr inbounds ptr, ptr %54, i64 9
  %56 = load ptr, ptr %55, align 8
  %57 = invoke noundef ptr %56(ptr noundef nonnull align 8 dereferenceable(120) %18, ptr noundef %52, ptr noundef nonnull align 4 dereferenceable(4) %53)
          to label %58 unwind label %63

58:                                               ; preds = %51
  store ptr %57, ptr %6, align 8
  store i32 1, ptr %17, align 4
  br label %68

59:                                               ; preds = %27
  %60 = landingpad { ptr, i32 }
          cleanup
  %61 = extractvalue { ptr, i32 } %60, 0
  store ptr %61, ptr %14, align 8
  %62 = extractvalue { ptr, i32 } %60, 1
  store i32 %62, ptr %15, align 4
  br label %71

63:                                               ; preds = %51, %40
  %64 = landingpad { ptr, i32 }
          cleanup
  %65 = extractvalue { ptr, i32 } %64, 0
  store ptr %65, ptr %14, align 8
  %66 = extractvalue { ptr, i32 } %64, 1
  store i32 %66, ptr %15, align 4
  call void @llvm.lifetime.end.p0(i64 8, ptr %16) #10
  br label %71

67:                                               ; preds = %48
  store i32 0, ptr %17, align 4
  br label %68

68:                                               ; preds = %67, %58
  call void @llvm.lifetime.end.p0(i64 8, ptr %16) #10
  call void @_ZN6icu_7713UnicodeStringD1Ev(ptr noundef nonnull align 8 dereferenceable(64) %13) #10
  call void @llvm.lifetime.end.p0(i64 64, ptr %13) #10
  %69 = load i32, ptr %17, align 4
  switch i32 %69, label %80 [
    i32 0, label %70
  ]

70:                                               ; preds = %68
  br label %72

71:                                               ; preds = %63, %59
  call void @_ZN6icu_7713UnicodeStringD1Ev(ptr noundef nonnull align 8 dereferenceable(64) %13) #10
  call void @llvm.lifetime.end.p0(i64 64, ptr %13) #10
  call void @llvm.lifetime.end.p0(i64 8, ptr %12) #10
  br label %82

72:                                               ; preds = %70, %5
  %73 = load ptr, ptr %8, align 8, !tbaa !12
  %74 = icmp eq ptr %73, null
  br i1 %74, label %79, label %75

75:                                               ; preds = %72
  %76 = load ptr, ptr %73, align 8, !tbaa !10
  %77 = getelementptr inbounds ptr, ptr %76, i64 1
  %78 = load ptr, ptr %77, align 8
  call void %78(ptr noundef nonnull align 8 dereferenceable(8) %73) #10
  br label %79

79:                                               ; preds = %75, %72
  store ptr null, ptr %6, align 8
  store i32 1, ptr %17, align 4
  br label %80

80:                                               ; preds = %79, %68
  call void @llvm.lifetime.end.p0(i64 8, ptr %12) #10
  %81 = load ptr, ptr %6, align 8
  ret ptr %81

82:                                               ; preds = %71
  %83 = load ptr, ptr %14, align 8
  %84 = load i32, ptr %15, align 4
  %85 = insertvalue { ptr, i32 } poison, ptr %83, 0
  %86 = insertvalue { ptr, i32 } %85, i32 %84, 1
  resume { ptr, i32 } %86
}