; Function Attrs: mustprogress uwtable
define noundef ptr @_ZN6icu_7710ICUService16registerInstanceEPNS_7UObjectERKNS_13UnicodeStringEaR10UErrorCode(ptr noundef nonnull align 8 dereferenceable(120) %0, ptr noundef %1, ptr noundef nonnull align 8 dereferenceable(64) %2, i8 noundef signext %3, ptr noundef nonnull align 4 dereferenceable(4) %4) unnamed_addr #0 align 2 personality ptr @__gxx_personality_v0 {
  %6 = alloca %"class.icu_77::UnicodeString", align 8
  %7 = load ptr, ptr %0, align 8, !tbaa !3
  %8 = getelementptr inbounds nuw i8, ptr %7, i64 104
  %9 = load ptr, ptr %8, align 8
  %10 = tail call noundef ptr %9(ptr noundef nonnull align 8 dereferenceable(120) %0, ptr noundef nonnull %2, ptr noundef nonnull align 4 dereferenceable(4) %4)
  %.not = icmp eq ptr %10, null
  br i1 %.not, label %37, label %11

11:                                               ; preds = %5
  call void @llvm.lifetime.start.p0(i64 64, ptr nonnull %6) #17
  store ptr getelementptr inbounds nuw inrange(-16, 88) (i8, ptr @_ZTVN6icu_7713UnicodeStringE, i64 16), ptr %6, align 8, !tbaa !3
  %12 = getelementptr inbounds nuw i8, ptr %6, i64 8
  store i16 2, ptr %12, align 8, !tbaa !6
  %13 = load ptr, ptr %10, align 8, !tbaa !3
  %14 = getelementptr inbounds nuw i8, ptr %13, i64 32
  %15 = load ptr, ptr %14, align 8
  %16 = invoke noundef nonnull align 8 dereferenceable(64) ptr %15(ptr noundef nonnull align 8 dereferenceable(72) %10, ptr noundef nonnull align 8 dereferenceable(64) %6)
          to label %17 unwind label %31

17:                                               ; preds = %11
  %18 = load ptr, ptr %10, align 8, !tbaa !3
  %19 = getelementptr inbounds nuw i8, ptr %18, i64 8
  %20 = load ptr, ptr %19, align 8
  call void %20(ptr noundef nonnull align 8 dereferenceable(72) %10) #17
  %21 = load ptr, ptr %0, align 8, !tbaa !3
  %22 = getelementptr inbounds nuw i8, ptr %21, i64 120
  %23 = load ptr, ptr %22, align 8
  %24 = invoke noundef ptr %23(ptr noundef nonnull align 8 dereferenceable(120) %0, ptr noundef %1, ptr noundef nonnull align 8 dereferenceable(64) %6, i8 noundef signext %3, ptr noundef nonnull align 4 dereferenceable(4) %4)
          to label %25 unwind label %33

25:                                               ; preds = %17
  %.not22 = icmp eq ptr %24, null
  br i1 %.not22, label %.thread, label %26

.thread:                                          ; preds = %25
  call void @_ZN6icu_7713UnicodeStringD1Ev(ptr noundef nonnull align 8 dereferenceable(64) %6) #17
  call void @llvm.lifetime.end.p0(i64 64, ptr nonnull %6) #17
  br label %37

26:                                               ; preds = %25
  %27 = load ptr, ptr %0, align 8, !tbaa !3
  %28 = getelementptr inbounds nuw i8, ptr %27, i64 72
  %29 = load ptr, ptr %28, align 8
  %30 = invoke noundef ptr %29(ptr noundef nonnull align 8 dereferenceable(120) %0, ptr noundef nonnull %24, ptr noundef nonnull align 4 dereferenceable(4) %4)
          to label %35 unwind label %33

31:                                               ; preds = %11
  %32 = landingpad { ptr, i32 }
          cleanup
  br label %36

33:                                               ; preds = %26, %17
  %34 = landingpad { ptr, i32 }
          cleanup
  br label %36

35:                                               ; preds = %26
  call void @_ZN6icu_7713UnicodeStringD1Ev(ptr noundef nonnull align 8 dereferenceable(64) %6) #17
  call void @llvm.lifetime.end.p0(i64 64, ptr nonnull %6) #17
  br label %43

36:                                               ; preds = %33, %31
  %.pn = phi { ptr, i32 } [ %34, %33 ], [ %32, %31 ]
  call void @_ZN6icu_7713UnicodeStringD1Ev(ptr noundef nonnull align 8 dereferenceable(64) %6) #17
  call void @llvm.lifetime.end.p0(i64 64, ptr nonnull %6) #17
  resume { ptr, i32 } %.pn

37:                                               ; preds = %.thread, %5
  %38 = icmp eq ptr %1, null
  br i1 %38, label %43, label %39

39:                                               ; preds = %37
  %40 = load ptr, ptr %1, align 8, !tbaa !3
  %41 = getelementptr inbounds nuw i8, ptr %40, i64 8
  %42 = load ptr, ptr %41, align 8
  call void %42(ptr noundef nonnull align 8 dereferenceable(8) %1) #17
  br label %43

43:                                               ; preds = %35, %37, %39
  %.1 = phi ptr [ %30, %35 ], [ null, %39 ], [ null, %37 ]
  ret ptr %.1
}